target datalayout = "e-m:e-p270:32:32-p271:32:32-p272:64:64-i64:64-i128:128-f80:128-n8:16:32:64-S128"
target triple = "x86_64-pc-linux-gnu"

%struct.slurm_conf_t = type { i64, ptr, i16, ptr, ptr, ptr, ptr, ptr, i16, ptr, ptr, ptr, ptr, ptr, ptr, ptr, i16, ptr, ptr, ptr, ptr, i16, ptr, ptr, ptr, i64, ptr, ptr, ptr, ptr, i16, ptr, ptr, i16, i32, ptr, i32, ptr, i32, i32, ptr, ptr, i64, i64, ptr, i16, i16, ptr, i32, i32, ptr, i32, ptr, i32, i16, i16, i16, ptr, i16, i16, ptr, ptr, i32, i16, i16, ptr, i32, i16, ptr, ptr, ptr, ptr, i16, ptr, ptr, ptr, ptr, i32, ptr, ptr, ptr, ptr, i16, i16, ptr, i32, i32, i32, i16, i16, ptr, ptr, i16, ptr, ptr, i32, i32, i32, i32, i32, i64, i32, i32, i16, ptr, ptr, i32, ptr, ptr, ptr, i16, i32, ptr, ptr, i16, ptr, ptr, i32, i16, ptr, ptr, ptr, ptr, i32, i32, i16, i16, i32, ptr, i16, ptr, i32, i32, i32, i32, i32, i32, ptr, i16, ptr, ptr, i32, i16, ptr, i32, i16, i16, ptr, ptr, ptr, i16, ptr, ptr, ptr, ptr, i16, i16, ptr, i16, ptr, i16, ptr, i16, ptr, i16, ptr, ptr, ptr, ptr, i16, ptr, ptr, ptr, i32, ptr, i32, ptr, ptr, i16, ptr, ptr, i32, i16, ptr, ptr, i16, i16, ptr, i16, ptr, ptr, ptr, i32, ptr, i16, i16, ptr, ptr, ptr, ptr, ptr, ptr, ptr, ptr, i16, i32, i16, ptr, ptr, ptr, ptr, i32, ptr, ptr, ptr, i16, ptr, ptr, ptr, i16, ptr, i16, ptr, i16, i16, ptr }

@slurm_conf = external global %struct.slurm_conf_t, align 8
@.str.27 = private unnamed_addr constant [24 x i8] c"ClusterName=CONFIGLESS\0A\00", align 1
@.str.28 = private unnamed_addr constant [13 x i8] c"AuthInfo=%s\0A\00", align 1
@.str.29 = private unnamed_addr constant [35 x i8] c"CommunicationParameters=EnableIPv6\00", align 1
@.str.30 = private unnamed_addr constant [11 x i8] c"slurm.conf\00", align 1
@.str.31 = private unnamed_addr constant [37 x i8] c"%s: could not write temporary config\00", align 1
@__func__._init_minimal_conf_server_config = private unnamed_addr constant [33 x i8] c"_init_minimal_conf_server_config\00", align 1

; Function Attrs: nounwind uwtable
define internal void @_init_minimal_conf_server_config(ptr noundef %0, i1 noundef zeroext %1, i1 noundef zeroext %2) #0 {
  %4 = alloca ptr, align 8
  %5 = alloca i8, align 1
  %6 = alloca i8, align 1
  %7 = alloca ptr, align 8
  %8 = alloca ptr, align 8
  %9 = alloca i32, align 4
  store ptr %0, ptr %4, align 8
  %10 = zext i1 %1 to i8
  store i8 %10, ptr %5, align 1
  %11 = zext i1 %2 to i8
  store i8 %11, ptr %6, align 1
  call void @llvm.lifetime.start.p0(i64 8, ptr %7) #9
  store ptr null, ptr %7, align 8
  call void @llvm.lifetime.start.p0(i64 8, ptr %8) #9
  store ptr null, ptr %8, align 8
  call void @llvm.lifetime.start.p0(i64 4, ptr %9) #9
  %12 = load ptr, ptr %4, align 8
  %13 = call i32 @list_for_each(ptr noundef %12, ptr noundef @_print_controllers, ptr noundef %7)
  call void (ptr, ptr, ...) @_xstrfmtcat(ptr noundef %7, ptr noundef @.str.27)
  %14 = load ptr, ptr getelementptr inbounds nuw (%struct.slurm_conf_t, ptr @slurm_conf, i32 0, i32 18), align 8
  %15 = icmp ne ptr %14, null
  br i1 %15, label %16, label %18

16:                                               ; preds = %3
  %17 = load ptr, ptr getelementptr inbounds nuw (%struct.slurm_conf_t, ptr @slurm_conf, i32 0, i32 18), align 8
  call void (ptr, ptr, ...) @_xstrfmtcat(ptr noundef %7, ptr noundef @.str.28, ptr noundef %17)
  br label %18

18:                                               ; preds = %16, %3
  %19 = load i8, ptr %5, align 1, !range !13, !noundef !14
  %20 = trunc i8 %19 to i1
  br i1 %20, label %21, label %22

21:                                               ; preds = %18
  call void @_xstrcat(ptr noundef %7, ptr noundef @.str.29)
  br label %22

22:                                               ; preds = %21, %18
  %23 = load ptr, ptr %7, align 8
  %24 = call i32 @dump_to_memfd(ptr noundef @.str.30, ptr noundef %23, ptr noundef %8)
  store i32 %24, ptr %9, align 4
  %25 = icmp slt i32 %24, 0
  br i1 %25, label %26, label %27

26:                                               ; preds = %22
  call void (ptr, ...) @fatal(ptr noundef @.str.31, ptr noundef @__func__._init_minimal_conf_server_config) #11
  unreachable

27:                                               ; preds = %22
  call void @slurm_xfree(ptr noundef %7)
  %28 = load i8, ptr %6, align 1, !range !13, !noundef !14
  %29 = trunc i8 %28 to i1
  br i1 %29, label %30, label %33

30:                                               ; preds = %27
  %31 = load ptr, ptr %8, align 8
  %32 = call i32 @slurm_conf_reinit(ptr noundef %31)
  br label %35

33:                                               ; preds = %27
  %34 = load ptr, ptr %8, align 8
  call void @slurm_init(ptr noundef %34)
  br label %35

35:                                               ; preds = %33, %30
  %36 = load i32, ptr %9, align 4
  %37 = call i32 @close(i32 noundef %36)
  call void @slurm_xfree(ptr noundef %8)
  call void @llvm.lifetime.end.p0(i64 4, ptr %9) #9
  call void @llvm.lifetime.end.p0(i64 8, ptr %8) #9
  call void @llvm.lifetime.end.p0(i64 8, ptr %7) #9
  ret void
}