; Function Attrs: nounwind uwtable
define internal fastcc void @_init_minimal_conf_server_config(ptr noundef %0, i1 noundef zeroext %1, i1 noundef zeroext %2) unnamed_addr #0 {
  %4 = alloca ptr, align 8
  %5 = alloca ptr, align 8
  call void @llvm.lifetime.start.p0(i64 8, ptr nonnull %4) #12
  store ptr null, ptr %4, align 8
  call void @llvm.lifetime.start.p0(i64 8, ptr nonnull %5) #12
  store ptr null, ptr %5, align 8
  %6 = call i32 @list_for_each(ptr noundef %0, ptr noundef nonnull @_print_controllers, ptr noundef nonnull %4) #12
  call void (ptr, ptr, ...) @_xstrfmtcat(ptr noundef nonnull %4, ptr noundef nonnull @.str.27) #12
  %7 = load ptr, ptr getelementptr inbounds nuw (i8, ptr @slurm_conf, i64 144), align 8
  %.not = icmp eq ptr %7, null
  br i1 %.not, label %9, label %8

8:                                                ; preds = %3
  call void (ptr, ptr, ...) @_xstrfmtcat(ptr noundef nonnull %4, ptr noundef nonnull @.str.28, ptr noundef nonnull %7) #12
  br label %9

9:                                                ; preds = %8, %3
  br i1 %1, label %10, label %11

10:                                               ; preds = %9
  call void @_xstrcat(ptr noundef nonnull %4, ptr noundef nonnull @.str.29) #12
  br label %11

11:                                               ; preds = %10, %9
  %12 = load ptr, ptr %4, align 8
  %13 = call i32 @dump_to_memfd(ptr noundef nonnull @.str.30, ptr noundef %12, ptr noundef nonnull %5)
  call void @slurm_xfree(ptr noundef nonnull %4) #12
  %14 = load ptr, ptr %5, align 8
  br i1 %2, label %15, label %17

15:                                               ; preds = %11
  %16 = call i32 @slurm_conf_reinit(ptr noundef %14) #12
  br label %18

17:                                               ; preds = %11
  call void @slurm_init(ptr noundef %14) #12
  br label %18

18:                                               ; preds = %17, %15
  %19 = call i32 @close(i32 noundef %13) #12
  call void @slurm_xfree(ptr noundef nonnull %5) #12
  call void @llvm.lifetime.end.p0(i64 8, ptr nonnull %5) #12
  call void @llvm.lifetime.end.p0(i64 8, ptr nonnull %4) #12
  ret void
}